; Function Attrs: nounwind sspstrong uwtable
define internal noundef i64 @strscan_peek(i64 noundef %0, i64 noundef %1) #0 {
  %3 = tail call ptr @rb_check_typeddata(i64 noundef %0, ptr noundef nonnull @strscanner_type) #12
  %4 = getelementptr inbounds nuw i8, ptr %3, i64 8
  %5 = load i64, ptr %4, align 8, !tbaa !23
  %6 = icmp eq i64 %5, 4
  br i1 %6, label %7, label %9

7:                                                ; preds = %2
  %8 = load i64, ptr @rb_eArgError, align 8, !tbaa !10
  tail call void (i64, ptr, ...) @rb_raise(i64 noundef %8, ptr noundef nonnull @.str.66) #14
  unreachable

9:                                                ; preds = %2
  %10 = and i64 %1, 1
  %.not.i = icmp eq i64 %10, 0
  br i1 %.not.i, label %13, label %11

11:                                               ; preds = %9
  %12 = ashr i64 %1, 1
  br label %rb_num2long_inline.exit

13:                                               ; preds = %9
  %14 = tail call i64 @rb_num2long(i64 noundef %1) #12
  %.pre = load i64, ptr %4, align 8, !tbaa !23
  br label %rb_num2long_inline.exit

rb_num2long_inline.exit:                          ; preds = %11, %13
  %15 = phi i64 [ %5, %11 ], [ %.pre, %13 ]
  %.0.i = phi i64 [ %12, %11 ], [ %14, %13 ]
  %16 = getelementptr inbounds nuw i8, ptr %3, i64 24
  %17 = load i64, ptr %16, align 8, !tbaa !29
  %18 = inttoptr i64 %15 to ptr
  %19 = getelementptr inbounds nuw i8, ptr %18, i64 16
  %20 = load i64, ptr %19, align 8, !tbaa !32
  %.not = icmp slt i64 %17, %20
  br i1 %.not, label %23, label %21

21:                                               ; preds = %rb_num2long_inline.exit
  %22 = tail call i64 @rb_str_new(ptr noundef nonnull @.str.70, i64 noundef 0) #12
  br label %32

23:                                               ; preds = %rb_num2long_inline.exit
  %24 = sub nsw i64 %20, %17
  %25 = tail call noundef i64 @llvm.smin.i64(i64 %.0.i, i64 %24)
  %26 = load i64, ptr %18, align 8, !tbaa !34, !noalias !55
  %27 = and i64 %26, 8192
  %.not.i.i.i = icmp eq i64 %27, 0
  %28 = getelementptr inbounds nuw i8, ptr %18, i64 24
  br i1 %.not.i.i.i, label %extract_beg_len.exit, label %29

29:                                               ; preds = %23
  %.sroa.2.0.copyload.i.i = load ptr, ptr %28, align 8
  br label %extract_beg_len.exit

extract_beg_len.exit:                             ; preds = %23, %29
  %.sroa.2.0.i.i = phi ptr [ %.sroa.2.0.copyload.i.i, %29 ], [ %28, %23 ]
  %30 = getelementptr inbounds i8, ptr %.sroa.2.0.i.i, i64 %17
  %31 = tail call i64 @rb_str_new(ptr noundef %30, i64 noundef %25) #12
  br label %32

32:                                               ; preds = %extract_beg_len.exit, %21
  %.sink = phi i64 [ %31, %extract_beg_len.exit ], [ %22, %21 ]
  %33 = load i64, ptr %4, align 8, !tbaa !23
  tail call void @rb_enc_copy(i64 noundef %.sink, i64 noundef %33) #12
  ret i64 %.sink
}